target datalayout = "e-m:e-p270:32:32-p271:32:32-p272:64:64-i64:64-i128:128-f80:128-n8:16:32:64-S128"
target triple = "x86_64-pc-linux-gnu"

%struct.__va_list_tag = type { i32, i32, ptr, ptr }
%struct.CRestriction = type { i32, i32, %union.anon.1 }
%union.anon.1 = type { ptr }

@hf_mswsp_crestrict_ultype = internal global i32 0, align 4
@hf_mswsp_crestrict_weight = internal global i32 0, align 4
@ett_CRestriction = internal global i32 0, align 4
@.str.1156 = private unnamed_addr constant [29 x i8] c"%s:%u: failed assertion \22%s\22\00", align 1
@.str.1157 = private unnamed_addr constant [31 x i8] c"epan/dissectors/packet-mswsp.c\00", align 1
@.str.1169 = private unnamed_addr constant [1 x i8] zeroinitializer, align 1
@.str.1255 = private unnamed_addr constant [10 x i8] c" Type: %s\00", align 1
@.str.1256 = private unnamed_addr constant [17 x i8] c"CNodeRestriction\00", align 1
@.str.1257 = private unnamed_addr constant [13 x i8] c"CRestriction\00", align 1
@.str.1258 = private unnamed_addr constant [21 x i8] c"CPropertyRestriction\00", align 1
@.str.1259 = private unnamed_addr constant [21 x i8] c"CCoercionRestriction\00", align 1
@.str.1260 = private unnamed_addr constant [20 x i8] c"CContentRestriction\00", align 1
@.str.1261 = private unnamed_addr constant [12 x i8] c"CReuseWhere\00", align 1
@.str.1262 = private unnamed_addr constant [24 x i8] c"CNatLanguageRestriction\00", align 1
@.str.1263 = private unnamed_addr constant [16 x i8] c" Not supported!\00", align 1
@.str.1264 = private unnamed_addr constant [2 x i8] c"0\00", align 1
@.str.1265 = private unnamed_addr constant [7 x i8] c"0x%.8x\00", align 1
@.str.1266 = private unnamed_addr constant [12 x i8] c"%s (0x%.8x)\00", align 1

; Function Attrs: null_pointer_is_valid sspstrong uwtable
define internal i32 @parse_rType(ptr noundef %0, i32 noundef %1, ptr noundef %2, ptr noundef %3, ptr noundef %4) #0 {
  %6 = alloca ptr, align 8
  %7 = alloca i32, align 4
  %8 = alloca ptr, align 8
  %9 = alloca ptr, align 8
  %10 = alloca ptr, align 8
  %11 = alloca ptr, align 8
  %12 = alloca i32, align 4
  store ptr %0, ptr %6, align 8
  store i32 %1, ptr %7, align 4
  store ptr %2, ptr %8, align 8
  store ptr %3, ptr %9, align 8
  store ptr %4, ptr %10, align 8
  call void @llvm.lifetime.start.p0(i64 8, ptr %11) #11
  store ptr null, ptr %11, align 8
  call void @llvm.lifetime.start.p0(i64 4, ptr %12) #11
  %13 = load ptr, ptr %6, align 8
  %14 = load i32, ptr %7, align 4
  %15 = call i32 @tvb_get_letohl(ptr noundef %13, i32 noundef %14)
  store i32 %15, ptr %12, align 4
  %16 = load i32, ptr %12, align 4
  switch i32 %16, label %53 [
    i32 0, label %17
    i32 1, label %19
    i32 2, label %21
    i32 3, label %23
    i32 4, label %25
    i32 5, label %27
    i32 6, label %29
    i32 7, label %31
    i32 8, label %33
    i32 9, label %35
    i32 10, label %37
    i32 11, label %39
    i32 12, label %41
    i32 13, label %43
    i32 14, label %45
    i32 15, label %47
    i32 17, label %49
    i32 16777210, label %51
  ]

17:                                               ; preds = %5
  %18 = load ptr, ptr %9, align 8
  store i32 0, ptr %18, align 4
  br label %54

19:                                               ; preds = %5
  %20 = load ptr, ptr %9, align 8
  store i32 1, ptr %20, align 4
  br label %54

21:                                               ; preds = %5
  %22 = load ptr, ptr %9, align 8
  store i32 2, ptr %22, align 4
  br label %54

23:                                               ; preds = %5
  %24 = load ptr, ptr %9, align 8
  store i32 3, ptr %24, align 4
  br label %54

25:                                               ; preds = %5
  %26 = load ptr, ptr %9, align 8
  store i32 4, ptr %26, align 4
  br label %54

27:                                               ; preds = %5
  %28 = load ptr, ptr %9, align 8
  store i32 5, ptr %28, align 4
  br label %54

29:                                               ; preds = %5
  %30 = load ptr, ptr %9, align 8
  store i32 6, ptr %30, align 4
  br label %54

31:                                               ; preds = %5
  %32 = load ptr, ptr %9, align 8
  store i32 7, ptr %32, align 4
  br label %54

33:                                               ; preds = %5
  %34 = load ptr, ptr %9, align 8
  store i32 8, ptr %34, align 4
  br label %54

35:                                               ; preds = %5
  %36 = load ptr, ptr %9, align 8
  store i32 9, ptr %36, align 4
  br label %54

37:                                               ; preds = %5
  %38 = load ptr, ptr %9, align 8
  store i32 10, ptr %38, align 4
  br label %54

39:                                               ; preds = %5
  %40 = load ptr, ptr %9, align 8
  store i32 11, ptr %40, align 4
  br label %54

41:                                               ; preds = %5
  %42 = load ptr, ptr %9, align 8
  store i32 12, ptr %42, align 4
  br label %54

43:                                               ; preds = %5
  %44 = load ptr, ptr %9, align 8
  store i32 13, ptr %44, align 4
  br label %54

45:                                               ; preds = %5
  %46 = load ptr, ptr %9, align 8
  store i32 14, ptr %46, align 4
  br label %54

47:                                               ; preds = %5
  %48 = load ptr, ptr %9, align 8
  store i32 15, ptr %48, align 4
  br label %54

49:                                               ; preds = %5
  %50 = load ptr, ptr %9, align 8
  store i32 17, ptr %50, align 4
  br label %54

51:                                               ; preds = %5
  %52 = load ptr, ptr %9, align 8
  store i32 16777210, ptr %52, align 4
  br label %54

53:                                               ; preds = %5
  call void (ptr, ...) @proto_report_dissector_bug(ptr noundef @.str.1156, ptr noundef @.str.1157, i32 noundef 3739, ptr noundef @.str.1264) #12
  unreachable

54:                                               ; preds = %51, %49, %47, %45, %43, %41, %39, %37, %35, %33, %31, %29, %27, %25, %23, %21, %19, %17
  %55 = load ptr, ptr %9, align 8
  %56 = load i32, ptr %55, align 4
  %57 = call ptr @val_to_str(i32 noundef %56, ptr noundef @RT_VALS, ptr noundef @.str.1265)
  store ptr %57, ptr %11, align 8
  %58 = load ptr, ptr %8, align 8
  %59 = load i32, ptr @hf_mswsp_crestrict_ultype, align 4
  %60 = load ptr, ptr %6, align 8
  %61 = load i32, ptr %7, align 4
  %62 = load ptr, ptr %11, align 8
  %63 = load ptr, ptr %11, align 8
  %64 = getelementptr i8, ptr %63, i64 0
  %65 = load i8, ptr %64, align 1
  %66 = sext i8 %65 to i32
  %67 = icmp eq i32 %66, 48
  br i1 %67, label %68, label %69

68:                                               ; preds = %54
  br label %71

69:                                               ; preds = %54
  %70 = load ptr, ptr %11, align 8
  br label %71

71:                                               ; preds = %69, %68
  %72 = phi ptr [ @.str.1169, %68 ], [ %70, %69 ]
  %73 = load ptr, ptr %9, align 8
  %74 = load i32, ptr %73, align 4
  %75 = call ptr (ptr, i32, ptr, i32, i32, ptr, ptr, ...) @proto_tree_add_string_format_value(ptr noundef %58, i32 noundef %59, ptr noundef %60, i32 noundef %61, i32 noundef 4, ptr noundef %62, ptr noundef @.str.1266, ptr noundef %72, i32 noundef %74)
  %76 = load ptr, ptr %10, align 8
  %77 = icmp ne ptr %76, null
  br i1 %77, label %78, label %81

78:                                               ; preds = %71
  %79 = load ptr, ptr %11, align 8
  %80 = load ptr, ptr %10, align 8
  store ptr %79, ptr %80, align 8
  br label %81

81:                                               ; preds = %78, %71
  %82 = load i32, ptr %7, align 4
  %83 = add i32 %82, 4
  call void @llvm.lifetime.end.p0(i64 4, ptr %12) #11
  call void @llvm.lifetime.end.p0(i64 8, ptr %11) #11
  ret i32 %83
}

; Function Attrs: null_pointer_is_valid sspstrong uwtable
define internal i32 @parse_CRestriction(ptr noundef %0, ptr noundef %1, i32 noundef %2, ptr noundef %3, ptr noundef %4, ptr noundef %5, ptr noundef %6, ...) #0 {
  %8 = alloca ptr, align 8
  %9 = alloca ptr, align 8
  %10 = alloca i32, align 4
  %11 = alloca ptr, align 8
  %12 = alloca ptr, align 8
  %13 = alloca ptr, align 8
  %14 = alloca ptr, align 8
  %15 = alloca ptr, align 8
  %16 = alloca ptr, align 8
  %17 = alloca ptr, align 8
  %18 = alloca ptr, align 8
  %19 = alloca [1 x %struct.__va_list_tag], align 16
  store ptr %0, ptr %8, align 8
  store ptr %1, ptr %9, align 8
  store i32 %2, ptr %10, align 4
  store ptr %3, ptr %11, align 8
  store ptr %4, ptr %12, align 8
  store ptr %5, ptr %13, align 8
  store ptr %6, ptr %14, align 8
  call void @llvm.lifetime.start.p0(i64 8, ptr %15) #11
  call void @llvm.lifetime.start.p0(i64 8, ptr %16) #11
  call void @llvm.lifetime.start.p0(i64 8, ptr %17) #11
  call void @llvm.lifetime.start.p0(i64 8, ptr %18) #11
  call void @llvm.lifetime.start.p0(i64 24, ptr %19) #11
  %20 = getelementptr inbounds [1 x %struct.__va_list_tag], ptr %19, i64 0, i64 0
  call void @llvm.va_start.p0(ptr %20)
  %21 = call ptr @wmem_packet_scope()
  %22 = load ptr, ptr %14, align 8
  %23 = getelementptr inbounds [1 x %struct.__va_list_tag], ptr %19, i64 0, i64 0
  %24 = call noalias ptr @wmem_strdup_vprintf(ptr noundef %21, ptr noundef %22, ptr noundef %23)
  store ptr %24, ptr %18, align 8
  %25 = getelementptr inbounds [1 x %struct.__va_list_tag], ptr %19, i64 0, i64 0
  call void @llvm.va_end.p0(ptr %25)
  %26 = load ptr, ptr %11, align 8
  %27 = load ptr, ptr %8, align 8
  %28 = load i32, ptr %10, align 4
  %29 = load i32, ptr @ett_CRestriction, align 4
  %30 = load ptr, ptr %18, align 8
  %31 = call ptr @proto_tree_add_subtree(ptr noundef %26, ptr noundef %27, i32 noundef %28, i32 noundef 0, i32 noundef %29, ptr noundef %16, ptr noundef %30)
  store ptr %31, ptr %15, align 8
  %32 = load ptr, ptr %8, align 8
  %33 = load i32, ptr %10, align 4
  %34 = load ptr, ptr %15, align 8
  %35 = load ptr, ptr %13, align 8
  %36 = getelementptr inbounds nuw %struct.CRestriction, ptr %35, i32 0, i32 0
  %37 = call i32 @parse_rType(ptr noundef %32, i32 noundef %33, ptr noundef %34, ptr noundef %36, ptr noundef %17)
  store i32 %37, ptr %10, align 4
  %38 = load ptr, ptr %16, align 8
  %39 = load ptr, ptr %17, align 8
  call void (ptr, ptr, ...) @proto_item_append_text(ptr noundef %38, ptr noundef @.str.1255, ptr noundef %39)
  %40 = load ptr, ptr %8, align 8
  %41 = load i32, ptr %10, align 4
  %42 = call i32 @tvb_get_letohl(ptr noundef %40, i32 noundef %41)
  %43 = load ptr, ptr %13, align 8
  %44 = getelementptr inbounds nuw %struct.CRestriction, ptr %43, i32 0, i32 1
  store i32 %42, ptr %44, align 4
  %45 = load ptr, ptr %15, align 8
  %46 = load i32, ptr @hf_mswsp_crestrict_weight, align 4
  %47 = load ptr, ptr %8, align 8
  %48 = load i32, ptr %10, align 4
  %49 = load ptr, ptr %13, align 8
  %50 = getelementptr inbounds nuw %struct.CRestriction, ptr %49, i32 0, i32 1
  %51 = load i32, ptr %50, align 4
  %52 = call ptr @proto_tree_add_uint(ptr noundef %45, i32 noundef %46, ptr noundef %47, i32 noundef %48, i32 noundef 4, i32 noundef %51)
  %53 = load i32, ptr %10, align 4
  %54 = add i32 %53, 4
  store i32 %54, ptr %10, align 4
  %55 = load ptr, ptr %9, align 8
  call void @increment_dissection_depth(ptr noundef %55)
  %56 = load ptr, ptr %13, align 8
  %57 = getelementptr inbounds nuw %struct.CRestriction, ptr %56, i32 0, i32 0
  %58 = load i32, ptr %57, align 8
  switch i32 %58, label %154 [
    i32 0, label %156
    i32 1, label %59
    i32 2, label %59
    i32 6, label %59
    i32 16777213, label %59
    i32 3, label %73
    i32 5, label %87
    i32 10, label %101
    i32 11, label %101
    i32 12, label %101
    i32 4, label %115
    i32 17, label %128
    i32 8, label %141
  ]

59:                                               ; preds = %7, %7, %7, %7
  %60 = call ptr @wmem_packet_scope()
  %61 = call noalias ptr @wmem_alloc(ptr noundef %60, i64 noundef 16) #13
  %62 = load ptr, ptr %13, align 8
  %63 = getelementptr inbounds nuw %struct.CRestriction, ptr %62, i32 0, i32 2
  store ptr %61, ptr %63, align 8
  %64 = load ptr, ptr %8, align 8
  %65 = load ptr, ptr %9, align 8
  %66 = load i32, ptr %10, align 4
  %67 = load ptr, ptr %15, align 8
  %68 = load ptr, ptr %12, align 8
  %69 = load ptr, ptr %13, align 8
  %70 = getelementptr inbounds nuw %struct.CRestriction, ptr %69, i32 0, i32 2
  %71 = load ptr, ptr %70, align 8
  %72 = call i32 (ptr, ptr, i32, ptr, ptr, ptr, ptr, ...) @parse_CNodeRestriction(ptr noundef %64, ptr noundef %65, i32 noundef %66, ptr noundef %67, ptr noundef %68, ptr noundef %71, ptr noundef @.str.1256)
  store i32 %72, ptr %10, align 4
  br label %156

73:                                               ; preds = %7
  %74 = call ptr @wmem_packet_scope()
  %75 = call noalias ptr @wmem_alloc(ptr noundef %74, i64 noundef 16) #13
  %76 = load ptr, ptr %13, align 8
  %77 = getelementptr inbounds nuw %struct.CRestriction, ptr %76, i32 0, i32 2
  store ptr %75, ptr %77, align 8
  %78 = load ptr, ptr %8, align 8
  %79 = load ptr, ptr %9, align 8
  %80 = load i32, ptr %10, align 4
  %81 = load ptr, ptr %15, align 8
  %82 = load ptr, ptr %12, align 8
  %83 = load ptr, ptr %13, align 8
  %84 = getelementptr inbounds nuw %struct.CRestriction, ptr %83, i32 0, i32 2
  %85 = load ptr, ptr %84, align 8
  %86 = call i32 (ptr, ptr, i32, ptr, ptr, ptr, ptr, ...) @parse_CRestriction(ptr noundef %78, ptr noundef %79, i32 noundef %80, ptr noundef %81, ptr noundef %82, ptr noundef %85, ptr noundef @.str.1257)
  store i32 %86, ptr %10, align 4
  br label %156

87:                                               ; preds = %7
  %88 = call ptr @wmem_packet_scope()
  %89 = call noalias ptr @wmem_alloc(ptr noundef %88, i64 noundef 96) #13
  %90 = load ptr, ptr %13, align 8
  %91 = getelementptr inbounds nuw %struct.CRestriction, ptr %90, i32 0, i32 2
  store ptr %89, ptr %91, align 8
  %92 = load ptr, ptr %8, align 8
  %93 = load ptr, ptr %9, align 8
  %94 = load i32, ptr %10, align 4
  %95 = load ptr, ptr %15, align 8
  %96 = load ptr, ptr %12, align 8
  %97 = load ptr, ptr %13, align 8
  %98 = getelementptr inbounds nuw %struct.CRestriction, ptr %97, i32 0, i32 2
  %99 = load ptr, ptr %98, align 8
  %100 = call i32 (ptr, ptr, i32, ptr, ptr, ptr, ptr, ...) @parse_CPropertyRestriction(ptr noundef %92, ptr noundef %93, i32 noundef %94, ptr noundef %95, ptr noundef %96, ptr noundef %99, ptr noundef @.str.1258)
  store i32 %100, ptr %10, align 4
  br label %156

101:                                              ; preds = %7, %7, %7
  %102 = call ptr @wmem_packet_scope()
  %103 = call noalias ptr @wmem_alloc(ptr noundef %102, i64 noundef 24) #13
  %104 = load ptr, ptr %13, align 8
  %105 = getelementptr inbounds nuw %struct.CRestriction, ptr %104, i32 0, i32 2
  store ptr %103, ptr %105, align 8
  %106 = load ptr, ptr %8, align 8
  %107 = load ptr, ptr %9, align 8
  %108 = load i32, ptr %10, align 4
  %109 = load ptr, ptr %15, align 8
  %110 = load ptr, ptr %12, align 8
  %111 = load ptr, ptr %13, align 8
  %112 = getelementptr inbounds nuw %struct.CRestriction, ptr %111, i32 0, i32 2
  %113 = load ptr, ptr %112, align 8
  %114 = call i32 (ptr, ptr, i32, ptr, ptr, ptr, ptr, ...) @parse_CCoercionRestriction(ptr noundef %106, ptr noundef %107, i32 noundef %108, ptr noundef %109, ptr noundef %110, ptr noundef %113, ptr noundef @.str.1259)
  store i32 %114, ptr %10, align 4
  br label %156

115:                                              ; preds = %7
  %116 = call ptr @wmem_packet_scope()
  %117 = call noalias ptr @wmem_alloc(ptr noundef %116, i64 noundef 48) #13
  %118 = load ptr, ptr %13, align 8
  %119 = getelementptr inbounds nuw %struct.CRestriction, ptr %118, i32 0, i32 2
  store ptr %117, ptr %119, align 8
  %120 = load ptr, ptr %8, align 8
  %121 = load i32, ptr %10, align 4
  %122 = load ptr, ptr %15, align 8
  %123 = load ptr, ptr %12, align 8
  %124 = load ptr, ptr %13, align 8
  %125 = getelementptr inbounds nuw %struct.CRestriction, ptr %124, i32 0, i32 2
  %126 = load ptr, ptr %125, align 8
  %127 = call i32 (ptr, i32, ptr, ptr, ptr, ptr, ...) @parse_CContentRestriction(ptr noundef %120, i32 noundef %121, ptr noundef %122, ptr noundef %123, ptr noundef %126, ptr noundef @.str.1260)
  store i32 %127, ptr %10, align 4
  br label %156

128:                                              ; preds = %7
  %129 = call ptr @wmem_packet_scope()
  %130 = call noalias ptr @wmem_alloc(ptr noundef %129, i64 noundef 4) #13
  %131 = load ptr, ptr %13, align 8
  %132 = getelementptr inbounds nuw %struct.CRestriction, ptr %131, i32 0, i32 2
  store ptr %130, ptr %132, align 8
  %133 = load ptr, ptr %8, align 8
  %134 = load i32, ptr %10, align 4
  %135 = load ptr, ptr %15, align 8
  %136 = load ptr, ptr %12, align 8
  %137 = load ptr, ptr %13, align 8
  %138 = getelementptr inbounds nuw %struct.CRestriction, ptr %137, i32 0, i32 2
  %139 = load ptr, ptr %138, align 8
  %140 = call i32 (ptr, i32, ptr, ptr, ptr, ptr, ...) @parse_CReuseWhere(ptr noundef %133, i32 noundef %134, ptr noundef %135, ptr noundef %136, ptr noundef %139, ptr noundef @.str.1261)
  store i32 %140, ptr %10, align 4
  br label %156

141:                                              ; preds = %7
  %142 = call ptr @wmem_packet_scope()
  %143 = call noalias ptr @wmem_alloc(ptr noundef %142, i64 noundef 48) #13
  %144 = load ptr, ptr %13, align 8
  %145 = getelementptr inbounds nuw %struct.CRestriction, ptr %144, i32 0, i32 2
  store ptr %143, ptr %145, align 8
  %146 = load ptr, ptr %8, align 8
  %147 = load i32, ptr %10, align 4
  %148 = load ptr, ptr %15, align 8
  %149 = load ptr, ptr %12, align 8
  %150 = load ptr, ptr %13, align 8
  %151 = getelementptr inbounds nuw %struct.CRestriction, ptr %150, i32 0, i32 2
  %152 = load ptr, ptr %151, align 8
  %153 = call i32 (ptr, i32, ptr, ptr, ptr, ptr, ...) @parse_CNatLanguageRestriction(ptr noundef %146, i32 noundef %147, ptr noundef %148, ptr noundef %149, ptr noundef %152, ptr noundef @.str.1262)
  store i32 %153, ptr %10, align 4
  br label %156

154:                                              ; preds = %7
  %155 = load ptr, ptr %16, align 8
  call void (ptr, ptr, ...) @proto_item_append_text(ptr noundef %155, ptr noundef @.str.1263)
  br label %156

156:                                              ; preds = %154, %141, %128, %115, %7, %101, %87, %73, %59
  %157 = load ptr, ptr %9, align 8
  call void @decrement_dissection_depth(ptr noundef %157)
  %158 = load ptr, ptr %16, align 8
  %159 = load ptr, ptr %8, align 8
  %160 = load i32, ptr %10, align 4
  call void @proto_item_set_end(ptr noundef %158, ptr noundef %159, i32 noundef %160)
  %161 = load i32, ptr %10, align 4
  call void @llvm.lifetime.end.p0(i64 24, ptr %19) #11
  call void @llvm.lifetime.end.p0(i64 8, ptr %18) #11
  call void @llvm.lifetime.end.p0(i64 8, ptr %17) #11
  call void @llvm.lifetime.end.p0(i64 8, ptr %16) #11
  call void @llvm.lifetime.end.p0(i64 8, ptr %15) #11
  ret i32 %161
}