; Function Attrs: null_pointer_is_valid sspstrong uwtable
define internal i32 @parse_CRestriction(ptr noundef %0, ptr noundef %1, i32 noundef %2, ptr noundef %3, ptr noundef %4, ptr noundef captures(none) %5, ptr noundef %6, ...) unnamed_addr #0 {
  %8 = alloca ptr, align 8
  %9 = alloca [1 x %struct.__va_list_tag], align 16
  call void @llvm.lifetime.start.p0(i64 8, ptr nonnull %8) #11
  call void @llvm.lifetime.start.p0(i64 24, ptr nonnull %9) #11
  call void @llvm.va_start.p0(ptr nonnull %9)
  %10 = call ptr @wmem_packet_scope()
  %11 = call noalias ptr @wmem_strdup_vprintf(ptr noundef %10, ptr noundef %6, ptr noundef nonnull %9)
  call void @llvm.va_end.p0(ptr nonnull %9)
  %12 = load i32, ptr @ett_CRestriction, align 4
  %13 = call ptr @proto_tree_add_subtree(ptr noundef %3, ptr noundef %0, i32 noundef %2, i32 noundef 0, i32 noundef %12, ptr noundef nonnull %8, ptr noundef %11)
  %14 = call i32 @tvb_get_letohl(ptr noundef %0, i32 noundef %2)
  switch i32 %14, label %15 [
    i32 0, label %parse_rType.exit
    i32 1, label %parse_rType.exit
    i32 2, label %parse_rType.exit
    i32 3, label %parse_rType.exit
    i32 4, label %parse_rType.exit
    i32 5, label %parse_rType.exit
    i32 6, label %parse_rType.exit
    i32 7, label %parse_rType.exit
    i32 8, label %parse_rType.exit
    i32 9, label %parse_rType.exit
    i32 10, label %parse_rType.exit
    i32 11, label %parse_rType.exit
    i32 12, label %parse_rType.exit
    i32 13, label %parse_rType.exit
    i32 14, label %parse_rType.exit
    i32 15, label %parse_rType.exit
    i32 17, label %parse_rType.exit
    i32 16777210, label %parse_rType.exit
  ]

15:                                               ; preds = %7
  call void (ptr, ...) @proto_report_dissector_bug(ptr noundef nonnull @.str.1156, ptr noundef nonnull @.str.1157, i32 noundef 3739, ptr noundef nonnull @.str.1264) #13
  unreachable

parse_rType.exit:                                 ; preds = %7, %7, %7, %7, %7, %7, %7, %7, %7, %7, %7, %7, %7, %7, %7, %7, %7, %7
  store i32 %14, ptr %5, align 4
  %16 = call ptr @val_to_str(i32 noundef %14, ptr noundef nonnull @RT_VALS, ptr noundef nonnull @.str.1265)
  %17 = load i32, ptr @hf_mswsp_crestrict_ultype, align 4
  %18 = load i8, ptr %16, align 1
  %19 = icmp eq i8 %18, 48
  %20 = select i1 %19, ptr @.str.1169, ptr %16
  %21 = load i32, ptr %5, align 4
  %22 = call ptr (ptr, i32, ptr, i32, i32, ptr, ptr, ...) @proto_tree_add_string_format_value(ptr noundef %13, i32 noundef %17, ptr noundef %0, i32 noundef %2, i32 noundef 4, ptr noundef %16, ptr noundef nonnull @.str.1266, ptr noundef %20, i32 noundef %21)
  %23 = add i32 %2, 4
  %24 = load ptr, ptr %8, align 8
  call void (ptr, ptr, ...) @proto_item_append_text(ptr noundef %24, ptr noundef nonnull @.str.1255, ptr noundef %16)
  %25 = call i32 @tvb_get_letohl(ptr noundef %0, i32 noundef %23)
  %26 = getelementptr inbounds nuw i8, ptr %5, i64 4
  store i32 %25, ptr %26, align 4
  %27 = load i32, ptr @hf_mswsp_crestrict_weight, align 4
  %28 = call ptr @proto_tree_add_uint(ptr noundef %13, i32 noundef %27, ptr noundef %0, i32 noundef %23, i32 noundef 4, i32 noundef %25)
  %29 = add i32 %2, 8
  call void @increment_dissection_depth(ptr noundef %1)
  %30 = load i32, ptr %5, align 8
  switch i32 %30, label %66 [
    i32 0, label %68
    i32 1, label %31
    i32 2, label %31
    i32 6, label %31
    i32 16777213, label %31
    i32 3, label %36
    i32 5, label %41
    i32 10, label %46
    i32 11, label %46
    i32 12, label %46
    i32 4, label %51
    i32 17, label %56
    i32 8, label %61
  ]

31:                                               ; preds = %parse_rType.exit, %parse_rType.exit, %parse_rType.exit, %parse_rType.exit
  %32 = call ptr @wmem_packet_scope()
  %33 = call noalias dereferenceable_or_null(16) ptr @wmem_alloc(ptr noundef %32, i64 noundef 16) #12
  %34 = getelementptr inbounds nuw i8, ptr %5, i64 8
  store ptr %33, ptr %34, align 8
  %35 = call i32 (ptr, ptr, i32, ptr, ptr, ptr, ptr, ...) @parse_CNodeRestriction(ptr noundef %0, ptr noundef %1, i32 noundef %29, ptr noundef %13, ptr noundef %4, ptr noundef %33, ptr nonnull poison)
  br label %68

36:                                               ; preds = %parse_rType.exit
  %37 = call ptr @wmem_packet_scope()
  %38 = call noalias dereferenceable_or_null(16) ptr @wmem_alloc(ptr noundef %37, i64 noundef 16) #12
  %39 = getelementptr inbounds nuw i8, ptr %5, i64 8
  store ptr %38, ptr %39, align 8
  %40 = call i32 (ptr, ptr, i32, ptr, ptr, ptr, ptr, ...) @parse_CRestriction(ptr noundef %0, ptr noundef %1, i32 noundef %29, ptr noundef %13, ptr noundef %4, ptr noundef %38, ptr noundef nonnull @.str.1257)
  br label %68

41:                                               ; preds = %parse_rType.exit
  %42 = call ptr @wmem_packet_scope()
  %43 = call noalias dereferenceable_or_null(96) ptr @wmem_alloc(ptr noundef %42, i64 noundef 96) #12
  %44 = getelementptr inbounds nuw i8, ptr %5, i64 8
  store ptr %43, ptr %44, align 8
  %45 = call i32 (ptr, ptr, i32, ptr, ptr, ptr, ptr, ...) @parse_CPropertyRestriction(ptr noundef %0, ptr noundef %1, i32 noundef %29, ptr noundef %13, ptr noundef %4, ptr noundef %43, ptr nonnull poison)
  br label %68

46:                                               ; preds = %parse_rType.exit, %parse_rType.exit, %parse_rType.exit
  %47 = call ptr @wmem_packet_scope()
  %48 = call noalias dereferenceable_or_null(24) ptr @wmem_alloc(ptr noundef %47, i64 noundef 24) #12
  %49 = getelementptr inbounds nuw i8, ptr %5, i64 8
  store ptr %48, ptr %49, align 8
  %50 = call i32 (ptr, ptr, i32, ptr, ptr, ptr, ptr, ...) @parse_CCoercionRestriction(ptr noundef %0, ptr noundef %1, i32 noundef %29, ptr noundef %13, ptr noundef %4, ptr noundef %48, ptr nonnull poison)
  br label %68

51:                                               ; preds = %parse_rType.exit
  %52 = call ptr @wmem_packet_scope()
  %53 = call noalias dereferenceable_or_null(48) ptr @wmem_alloc(ptr noundef %52, i64 noundef 48) #12
  %54 = getelementptr inbounds nuw i8, ptr %5, i64 8
  store ptr %53, ptr %54, align 8
  %55 = call i32 (ptr, i32, ptr, ptr, ptr, ptr, ...) @parse_CContentRestriction(ptr noundef %0, i32 noundef %29, ptr noundef %13, ptr noundef %4, ptr noundef %53, ptr nonnull poison)
  br label %68

56:                                               ; preds = %parse_rType.exit
  %57 = call ptr @wmem_packet_scope()
  %58 = call noalias dereferenceable_or_null(4) ptr @wmem_alloc(ptr noundef %57, i64 noundef 4) #12
  %59 = getelementptr inbounds nuw i8, ptr %5, i64 8
  store ptr %58, ptr %59, align 8
  %60 = call i32 (ptr, i32, ptr, ptr, ptr, ptr, ...) @parse_CReuseWhere(ptr noundef %0, i32 noundef %29, ptr noundef %13, ptr poison, ptr noundef %58, ptr nonnull poison)
  br label %68

61:                                               ; preds = %parse_rType.exit
  %62 = call ptr @wmem_packet_scope()
  %63 = call noalias dereferenceable_or_null(48) ptr @wmem_alloc(ptr noundef %62, i64 noundef 48) #12
  %64 = getelementptr inbounds nuw i8, ptr %5, i64 8
  store ptr %63, ptr %64, align 8
  %65 = call i32 (ptr, i32, ptr, ptr, ptr, ptr, ...) @parse_CNatLanguageRestriction(ptr noundef %0, i32 noundef %29, ptr noundef %13, ptr noundef %4, ptr noundef %63, ptr nonnull poison)
  br label %68

66:                                               ; preds = %parse_rType.exit
  %67 = load ptr, ptr %8, align 8
  call void (ptr, ptr, ...) @proto_item_append_text(ptr noundef %67, ptr noundef nonnull @.str.1263)
  br label %68

68:                                               ; preds = %66, %61, %56, %51, %46, %41, %36, %31, %parse_rType.exit
  %.0 = phi i32 [ %29, %66 ], [ %65, %61 ], [ %60, %56 ], [ %55, %51 ], [ %50, %46 ], [ %45, %41 ], [ %40, %36 ], [ %35, %31 ], [ %29, %parse_rType.exit ]
  call void @decrement_dissection_depth(ptr noundef %1)
  %69 = load ptr, ptr %8, align 8
  call void @proto_item_set_end(ptr noundef %69, ptr noundef %0, i32 noundef %.0)
  call void @llvm.lifetime.end.p0(i64 24, ptr nonnull %9) #11
  call void @llvm.lifetime.end.p0(i64 8, ptr nonnull %8) #11
  ret i32 %.0
}